; Function Attrs: nounwind uwtable
define i32 @av_buffersink_get_colorspace(ptr noundef readonly captures(none) %0) local_unnamed_addr #0 {
  %2 = getelementptr inbounds nuw i8, ptr %0, i64 8
  %3 = load ptr, ptr %2, align 8, !tbaa !50
  %4 = getelementptr inbounds nuw i8, ptr %3, i64 104
  %5 = load ptr, ptr %4, align 8, !tbaa !51
  %6 = icmp eq ptr %5, @activate
  br i1 %6, label %8, label %7

7:                                                ; preds = %1
  tail call void (ptr, i32, ptr, ...) @av_log(ptr noundef null, i32 noundef 0, ptr noundef nonnull @.str, ptr noundef nonnull @.str.1, ptr noundef nonnull @.str.2, i32 noundef 329) #10
  tail call void @abort() #11
  unreachable

8:                                                ; preds = %1
  %9 = getelementptr inbounds nuw i8, ptr %0, i64 32
  %10 = load ptr, ptr %9, align 8, !tbaa !4
  %11 = load ptr, ptr %10, align 8, !tbaa !20
  %12 = getelementptr inbounds nuw i8, ptr %11, i64 56
  %13 = load i32, ptr %12, align 8, !tbaa !62
  ret i32 %13
}